; Function Attrs: mustprogress uwtable
define void @_ZNK7rocksdb10WriteBatch7IterateEPNS0_7HandlerE(ptr noalias sret(%"class.rocksdb::Status") align 8 %agg.result, ptr noundef nonnull align 8 dereferenceable(96) %this, ptr noundef %handler) local_unnamed_addr #2 align 2 {
entry:
  %ref.tmp = alloca %"class.rocksdb::Slice", align 8
  %ref.tmp2 = alloca %"class.rocksdb::Slice", align 8
  %rep_ = getelementptr inbounds i8, ptr %this, i64 64
  %call = tail call noundef i64 @_ZNKSt7__cxx1112basic_stringIcSt11char_traitsIcESaIcEE4sizeEv(ptr noundef nonnull align 8 dereferenceable(32) %rep_) #24
  %cmp = icmp ult i64 %call, 12
  br i1 %cmp, label %if.then, label %if.end

if.then:                                          ; preds = %entry
  store ptr @.str.12, ptr %ref.tmp, align 8
  %size_.i = getelementptr inbounds i8, ptr %ref.tmp, i64 8
  store i64 32, ptr %size_.i, align 8
  store ptr @.str.28, ptr %ref.tmp2, align 8
  %size_.i1 = getelementptr inbounds i8, ptr %ref.tmp2, i64 8
  store i64 0, ptr %size_.i1, align 8
  call void @_ZN7rocksdb6StatusC2ENS0_4CodeENS0_7SubCodeERKNS_5SliceES5_NS0_8SeverityE(ptr noundef nonnull align 8 dereferenceable(16) %agg.result, i8 noundef zeroext 2, i8 noundef zeroext 0, ptr noundef nonnull align 8 dereferenceable(16) %ref.tmp, ptr noundef nonnull align 8 dereferenceable(16) %ref.tmp2, i8 noundef zeroext 0)
  br label %return

if.end:                                           ; preds = %entry
  %call4 = tail call noundef i64 @_ZNKSt7__cxx1112basic_stringIcSt11char_traitsIcESaIcEE4sizeEv(ptr noundef nonnull align 8 dereferenceable(32) %rep_) #24
  tail call void @_ZN7rocksdb18WriteBatchInternal7IterateEPKNS_10WriteBatchEPNS1_7HandlerEmm(ptr sret(%"class.rocksdb::Status") align 8 %agg.result, ptr noundef nonnull %this, ptr noundef %handler, i64 noundef 12, i64 noundef %call4)
  br label %return

return:                                           ; preds = %if.end, %if.then
  ret void
}